target datalayout = "e-m:e-p270:32:32-p271:32:32-p272:64:64-i64:64-i128:128-f80:128-n8:16:32:64-S128"
target triple = "x86_64-pc-linux-gnu"

%struct._value_string_ext = type { ptr, i32, i32, ptr, ptr }
%struct._dcerpc_info = type { ptr, i32, i64, i8, i8, i8, i32, i32, i32, i32, i32, i32, i32, i32, ptr, ptr, ptr, ptr, %struct.anon }
%struct.anon = type { i8, ptr, ptr, ptr, i8 }
%struct.nstime_t = type { i64, i32 }
%struct._packet_info = type { ptr, ptr, i32, i32, %struct.nstime_t, %struct.nstime_t, %struct.nstime_t, i8, ptr, ptr, ptr, ptr, %struct._address, %struct._address, %struct._address, %struct._address, %struct._address, %struct._address, i32, ptr, i8, [3 x i8], %struct.anon.0, i32, i32, i32, i32, ptr, i8, ptr, ptr, i16, i16, i32, i32, i16, i32, i32, ptr, ptr, ptr, i8, i8, i16, i16, i16, i32, i16, i16, ptr, ptr, ptr, ptr, ptr, i32, i32 }
%struct._address = type { i32, i32, ptr, ptr }
%struct.anon.0 = type { i8, [3 x i8] }

@hf_iremotewinspool_werror = internal global i32 0, align 4
@WERR_errors_ext = external global %struct._value_string_ext, align 8
@hf_iremotewinspool_winspool_AsyncGetPrinterData_pData = internal global i32 0, align 4
@hf_iremotewinspool_winspool_AsyncGetPrinterData_pType = internal global i32 0, align 4
@hf_iremotewinspool_winspool_AsyncGetPrinterData_pcbNeeded = internal global i32 0, align 4
@.str.539 = private unnamed_addr constant [29 x i8] c"winspool_AsyncGetPrinterData\00", align 1
@.str.603 = private unnamed_addr constant [12 x i8] c", Error: %s\00", align 1
@.str.604 = private unnamed_addr constant [25 x i8] c"Unknown DOS error 0x%08x\00", align 1
@.str.611 = private unnamed_addr constant [30 x i8] c"Pointer to PcbNeeded (uint32)\00", align 1
@.str.620 = private unnamed_addr constant [26 x i8] c"Pointer to PType (uint32)\00", align 1
@.str.621 = private unnamed_addr constant [25 x i8] c"Pointer to PData (uint8)\00", align 1

; Function Attrs: null_pointer_is_valid sspstrong uwtable
define internal i32 @iremotewinspool_dissect_element_winspool_AsyncGetPrinterData_pcbNeeded(ptr noundef %0, i32 noundef %1, ptr noundef %2, ptr noundef %3, ptr noundef %4, ptr noundef %5) #0 {
  %7 = alloca ptr, align 8
  %8 = alloca i32, align 4
  %9 = alloca ptr, align 8
  %10 = alloca ptr, align 8
  %11 = alloca ptr, align 8
  %12 = alloca ptr, align 8
  store ptr %0, ptr %7, align 8
  store i32 %1, ptr %8, align 4
  store ptr %2, ptr %9, align 8
  store ptr %3, ptr %10, align 8
  store ptr %4, ptr %11, align 8
  store ptr %5, ptr %12, align 8
  %13 = load ptr, ptr %7, align 8
  %14 = load i32, ptr %8, align 4
  %15 = load ptr, ptr %9, align 8
  %16 = load ptr, ptr %10, align 8
  %17 = load ptr, ptr %11, align 8
  %18 = load ptr, ptr %12, align 8
  %19 = load i32, ptr @hf_iremotewinspool_winspool_AsyncGetPrinterData_pcbNeeded, align 4
  %20 = call i32 @dissect_ndr_toplevel_pointer(ptr noundef %13, i32 noundef %14, ptr noundef %15, ptr noundef %16, ptr noundef %17, ptr noundef %18, ptr noundef @iremotewinspool_dissect_element_winspool_AsyncGetPrinterData_pcbNeeded_, i32 noundef 1, ptr noundef @.str.611, i32 noundef %19)
  store i32 %20, ptr %8, align 4
  %21 = load i32, ptr %8, align 4
  ret i32 %21
}

; Function Attrs: null_pointer_is_valid sspstrong uwtable
define internal i32 @iremotewinspool_dissect_element_winspool_AsyncGetPrinterData_pData(ptr noundef %0, i32 noundef %1, ptr noundef %2, ptr noundef %3, ptr noundef %4, ptr noundef %5) #0 {
  %7 = alloca ptr, align 8
  %8 = alloca i32, align 4
  %9 = alloca ptr, align 8
  %10 = alloca ptr, align 8
  %11 = alloca ptr, align 8
  %12 = alloca ptr, align 8
  store ptr %0, ptr %7, align 8
  store i32 %1, ptr %8, align 4
  store ptr %2, ptr %9, align 8
  store ptr %3, ptr %10, align 8
  store ptr %4, ptr %11, align 8
  store ptr %5, ptr %12, align 8
  %13 = load ptr, ptr %7, align 8
  %14 = load i32, ptr %8, align 4
  %15 = load ptr, ptr %9, align 8
  %16 = load ptr, ptr %10, align 8
  %17 = load ptr, ptr %11, align 8
  %18 = load ptr, ptr %12, align 8
  %19 = load i32, ptr @hf_iremotewinspool_winspool_AsyncGetPrinterData_pData, align 4
  %20 = call i32 @dissect_ndr_toplevel_pointer(ptr noundef %13, i32 noundef %14, ptr noundef %15, ptr noundef %16, ptr noundef %17, ptr noundef %18, ptr noundef @iremotewinspool_dissect_element_winspool_AsyncGetPrinterData_pData_, i32 noundef 1, ptr noundef @.str.621, i32 noundef %19)
  store i32 %20, ptr %8, align 4
  %21 = load i32, ptr %8, align 4
  ret i32 %21
}

; Function Attrs: null_pointer_is_valid sspstrong uwtable
define internal i32 @iremotewinspool_dissect_element_winspool_AsyncGetPrinterData_pType(ptr noundef %0, i32 noundef %1, ptr noundef %2, ptr noundef %3, ptr noundef %4, ptr noundef %5) #0 {
  %7 = alloca ptr, align 8
  %8 = alloca i32, align 4
  %9 = alloca ptr, align 8
  %10 = alloca ptr, align 8
  %11 = alloca ptr, align 8
  %12 = alloca ptr, align 8
  store ptr %0, ptr %7, align 8
  store i32 %1, ptr %8, align 4
  store ptr %2, ptr %9, align 8
  store ptr %3, ptr %10, align 8
  store ptr %4, ptr %11, align 8
  store ptr %5, ptr %12, align 8
  %13 = load ptr, ptr %7, align 8
  %14 = load i32, ptr %8, align 4
  %15 = load ptr, ptr %9, align 8
  %16 = load ptr, ptr %10, align 8
  %17 = load ptr, ptr %11, align 8
  %18 = load ptr, ptr %12, align 8
  %19 = load i32, ptr @hf_iremotewinspool_winspool_AsyncGetPrinterData_pType, align 4
  %20 = call i32 @dissect_ndr_toplevel_pointer(ptr noundef %13, i32 noundef %14, ptr noundef %15, ptr noundef %16, ptr noundef %17, ptr noundef %18, ptr noundef @iremotewinspool_dissect_element_winspool_AsyncGetPrinterData_pType_, i32 noundef 1, ptr noundef @.str.620, i32 noundef %19)
  store i32 %20, ptr %8, align 4
  %21 = load i32, ptr %8, align 4
  ret i32 %21
}

; Function Attrs: null_pointer_is_valid sspstrong uwtable
define internal i32 @iremotewinspool_dissect_winspool_AsyncGetPrinterData_response(ptr noundef %0, i32 noundef %1, ptr noundef %2, ptr noundef %3, ptr noundef %4, ptr noundef %5) #0 {
  %7 = alloca ptr, align 8
  %8 = alloca i32, align 4
  %9 = alloca ptr, align 8
  %10 = alloca ptr, align 8
  %11 = alloca ptr, align 8
  %12 = alloca ptr, align 8
  %13 = alloca i32, align 4
  store ptr %0, ptr %7, align 8
  store i32 %1, ptr %8, align 4
  store ptr %2, ptr %9, align 8
  store ptr %3, ptr %10, align 8
  store ptr %4, ptr %11, align 8
  store ptr %5, ptr %12, align 8
  call void @llvm.lifetime.start.p0(i64 4, ptr %13) #3
  %14 = load ptr, ptr %11, align 8
  %15 = getelementptr inbounds nuw %struct._dcerpc_info, ptr %14, i32 0, i32 15
  store ptr @.str.539, ptr %15, align 8
  %16 = load ptr, ptr %7, align 8
  %17 = load i32, ptr %8, align 4
  %18 = load ptr, ptr %9, align 8
  %19 = load ptr, ptr %10, align 8
  %20 = load ptr, ptr %11, align 8
  %21 = load ptr, ptr %12, align 8
  %22 = call i32 @iremotewinspool_dissect_element_winspool_AsyncGetPrinterData_pType(ptr noundef %16, i32 noundef %17, ptr noundef %18, ptr noundef %19, ptr noundef %20, ptr noundef %21)
  store i32 %22, ptr %8, align 4
  %23 = load ptr, ptr %9, align 8
  %24 = load ptr, ptr %7, align 8
  %25 = load i32, ptr %8, align 4
  %26 = load ptr, ptr %11, align 8
  %27 = load ptr, ptr %12, align 8
  %28 = call i32 @dissect_deferred_pointers(ptr noundef %23, ptr noundef %24, i32 noundef %25, ptr noundef %26, ptr noundef %27)
  store i32 %28, ptr %8, align 4
  %29 = load ptr, ptr %7, align 8
  %30 = load i32, ptr %8, align 4
  %31 = load ptr, ptr %9, align 8
  %32 = load ptr, ptr %10, align 8
  %33 = load ptr, ptr %11, align 8
  %34 = load ptr, ptr %12, align 8
  %35 = call i32 @iremotewinspool_dissect_element_winspool_AsyncGetPrinterData_pData(ptr noundef %29, i32 noundef %30, ptr noundef %31, ptr noundef %32, ptr noundef %33, ptr noundef %34)
  store i32 %35, ptr %8, align 4
  %36 = load ptr, ptr %9, align 8
  %37 = load ptr, ptr %7, align 8
  %38 = load i32, ptr %8, align 4
  %39 = load ptr, ptr %11, align 8
  %40 = load ptr, ptr %12, align 8
  %41 = call i32 @dissect_deferred_pointers(ptr noundef %36, ptr noundef %37, i32 noundef %38, ptr noundef %39, ptr noundef %40)
  store i32 %41, ptr %8, align 4
  %42 = load ptr, ptr %7, align 8
  %43 = load i32, ptr %8, align 4
  %44 = load ptr, ptr %9, align 8
  %45 = load ptr, ptr %10, align 8
  %46 = load ptr, ptr %11, align 8
  %47 = load ptr, ptr %12, align 8
  %48 = call i32 @iremotewinspool_dissect_element_winspool_AsyncGetPrinterData_pcbNeeded(ptr noundef %42, i32 noundef %43, ptr noundef %44, ptr noundef %45, ptr noundef %46, ptr noundef %47)
  store i32 %48, ptr %8, align 4
  %49 = load ptr, ptr %9, align 8
  %50 = load ptr, ptr %7, align 8
  %51 = load i32, ptr %8, align 4
  %52 = load ptr, ptr %11, align 8
  %53 = load ptr, ptr %12, align 8
  %54 = call i32 @dissect_deferred_pointers(ptr noundef %49, ptr noundef %50, i32 noundef %51, ptr noundef %52, ptr noundef %53)
  store i32 %54, ptr %8, align 4
  %55 = load ptr, ptr %7, align 8
  %56 = load i32, ptr %8, align 4
  %57 = load ptr, ptr %9, align 8
  %58 = load ptr, ptr %10, align 8
  %59 = load ptr, ptr %11, align 8
  %60 = load ptr, ptr %12, align 8
  %61 = load i32, ptr @hf_iremotewinspool_werror, align 4
  %62 = call i32 @dissect_ndr_uint32(ptr noundef %55, i32 noundef %56, ptr noundef %57, ptr noundef %58, ptr noundef %59, ptr noundef %60, i32 noundef %61, ptr noundef %13)
  store i32 %62, ptr %8, align 4
  %63 = load i32, ptr %13, align 4
  %64 = icmp ne i32 %63, 0
  br i1 %64, label %65, label %71

65:                                               ; preds = %6
  %66 = load ptr, ptr %9, align 8
  %67 = getelementptr inbounds nuw %struct._packet_info, ptr %66, i32 0, i32 1
  %68 = load ptr, ptr %67, align 8
  %69 = load i32, ptr %13, align 4
  %70 = call ptr @val_to_str_ext(i32 noundef %69, ptr noundef @WERR_errors_ext, ptr noundef @.str.604)
  call void (ptr, i32, ptr, ...) @col_append_fstr(ptr noundef %68, i32 noundef 25, ptr noundef @.str.603, ptr noundef %70)
  br label %71

71:                                               ; preds = %65, %6
  %72 = load i32, ptr %8, align 4
  call void @llvm.lifetime.end.p0(i64 4, ptr %13) #3
  ret i32 %72
}